target datalayout = "e-m:e-p270:32:32-p271:32:32-p272:64:64-i64:64-i128:128-f80:128-n8:16:32:64-S128"
target triple = "x86_64-pc-linux-gnu"

%struct._dcerpc_info = type { ptr, i32, i64, i8, i8, i8, i32, i32, i32, i32, i32, i32, i32, i32, ptr, ptr, ptr, ptr, %struct.anon }
%struct.anon = type { i8, ptr, ptr, ptr, i8 }

@ett_mapi_mapi_SPropValue_array_wrap = internal global i32 0, align 4
@hf_mapi_mapi_SPropValue_array_wrap_wrap = internal global i32 0, align 4

; Function Attrs: null_pointer_is_valid sspstrong uwtable
define internal i32 @mapi_dissect_element_SPropValue_array_wrap_wrap_(ptr noundef %0, i32 noundef %1, ptr noundef %2, ptr noundef %3, ptr noundef %4, ptr noundef %5) #0 {
  %7 = alloca ptr, align 8
  %8 = alloca i32, align 4
  %9 = alloca ptr, align 8
  %10 = alloca ptr, align 8
  %11 = alloca ptr, align 8
  %12 = alloca ptr, align 8
  store ptr %0, ptr %7, align 8
  store i32 %1, ptr %8, align 4
  store ptr %2, ptr %9, align 8
  store ptr %3, ptr %10, align 8
  store ptr %4, ptr %11, align 8
  store ptr %5, ptr %12, align 8
  %13 = load ptr, ptr %7, align 8
  %14 = load i32, ptr %8, align 4
  %15 = load ptr, ptr %9, align 8
  %16 = load ptr, ptr %10, align 8
  %17 = load ptr, ptr %11, align 8
  %18 = load ptr, ptr %12, align 8
  %19 = load i32, ptr @hf_mapi_mapi_SPropValue_array_wrap_wrap, align 4
  %20 = call i32 @PIDL_dissect_uint8(ptr noundef %13, i32 noundef %14, ptr noundef %15, ptr noundef %16, ptr noundef %17, ptr noundef %18, i32 noundef %19, i32 noundef 0)
  store i32 %20, ptr %8, align 4
  %21 = load i32, ptr %8, align 4
  ret i32 %21
}

; Function Attrs: null_pointer_is_valid sspstrong uwtable
define internal i32 @mapi_dissect_element_SPropValue_array_wrap_wrap(ptr noundef %0, i32 noundef %1, ptr noundef %2, ptr noundef %3, ptr noundef %4, ptr noundef %5) #0 {
  %7 = alloca ptr, align 8
  %8 = alloca i32, align 4
  %9 = alloca ptr, align 8
  %10 = alloca ptr, align 8
  %11 = alloca ptr, align 8
  %12 = alloca ptr, align 8
  %13 = alloca i32, align 4
  store ptr %0, ptr %7, align 8
  store i32 %1, ptr %8, align 4
  store ptr %2, ptr %9, align 8
  store ptr %3, ptr %10, align 8
  store ptr %4, ptr %11, align 8
  store ptr %5, ptr %12, align 8
  call void @llvm.lifetime.start.p0(i64 4, ptr %13) #5
  store i32 0, ptr %13, align 4
  br label %14

14:                                               ; preds = %25, %6
  %15 = load i32, ptr %13, align 4
  %16 = icmp slt i32 %15, 32768
  br i1 %16, label %17, label %28

17:                                               ; preds = %14
  %18 = load ptr, ptr %7, align 8
  %19 = load i32, ptr %8, align 4
  %20 = load ptr, ptr %9, align 8
  %21 = load ptr, ptr %10, align 8
  %22 = load ptr, ptr %11, align 8
  %23 = load ptr, ptr %12, align 8
  %24 = call i32 @mapi_dissect_element_SPropValue_array_wrap_wrap_(ptr noundef %18, i32 noundef %19, ptr noundef %20, ptr noundef %21, ptr noundef %22, ptr noundef %23)
  store i32 %24, ptr %8, align 4
  br label %25

25:                                               ; preds = %17
  %26 = load i32, ptr %13, align 4
  %27 = add i32 %26, 1
  store i32 %27, ptr %13, align 4
  br label %14, !llvm.loop !17

28:                                               ; preds = %14
  %29 = load i32, ptr %8, align 4
  call void @llvm.lifetime.end.p0(i64 4, ptr %13) #5
  ret i32 %29
}

; Function Attrs: null_pointer_is_valid sspstrong uwtable
define hidden i32 @mapi_dissect_struct_SPropValue_array_wrap(ptr noundef %0, i32 noundef %1, ptr noundef %2, ptr noundef %3, ptr noundef %4, ptr noundef %5, i32 noundef %6, i32 noundef %7) #0 {
  %9 = alloca ptr, align 8
  %10 = alloca i32, align 4
  %11 = alloca ptr, align 8
  %12 = alloca ptr, align 8
  %13 = alloca ptr, align 8
  %14 = alloca ptr, align 8
  %15 = alloca i32, align 4
  %16 = alloca i32, align 4
  %17 = alloca ptr, align 8
  %18 = alloca ptr, align 8
  %19 = alloca i8, align 1
  %20 = alloca i32, align 4
  store ptr %0, ptr %9, align 8
  store i32 %1, ptr %10, align 4
  store ptr %2, ptr %11, align 8
  store ptr %3, ptr %12, align 8
  store ptr %4, ptr %13, align 8
  store ptr %5, ptr %14, align 8
  store i32 %6, ptr %15, align 4
  store i32 %7, ptr %16, align 4
  call void @llvm.lifetime.start.p0(i64 8, ptr %17) #5
  store ptr null, ptr %17, align 8
  call void @llvm.lifetime.start.p0(i64 8, ptr %18) #5
  store ptr null, ptr %18, align 8
  call void @llvm.lifetime.start.p0(i64 1, ptr %19) #5
  %21 = load ptr, ptr %13, align 8
  %22 = getelementptr inbounds nuw %struct._dcerpc_info, ptr %21, i32 0, i32 5
  %23 = load i8, ptr %22, align 2, !range !6, !noundef !7
  %24 = trunc i8 %23 to i1
  %25 = zext i1 %24 to i8
  store i8 %25, ptr %19, align 1
  call void @llvm.lifetime.start.p0(i64 4, ptr %20) #5
  %26 = load ptr, ptr %13, align 8
  %27 = getelementptr inbounds nuw %struct._dcerpc_info, ptr %26, i32 0, i32 5
  store i8 1, ptr %27, align 2
  %28 = load i32, ptr %10, align 4
  store i32 %28, ptr %20, align 4
  %29 = load ptr, ptr %12, align 8
  %30 = icmp ne ptr %29, null
  br i1 %30, label %31, label %40

31:                                               ; preds = %8
  %32 = load ptr, ptr %12, align 8
  %33 = load i32, ptr %15, align 4
  %34 = load ptr, ptr %9, align 8
  %35 = load i32, ptr %10, align 4
  %36 = call ptr @proto_tree_add_item(ptr noundef %32, i32 noundef %33, ptr noundef %34, i32 noundef %35, i32 noundef -1, i32 noundef 0)
  store ptr %36, ptr %17, align 8
  %37 = load ptr, ptr %17, align 8
  %38 = load i32, ptr @ett_mapi_mapi_SPropValue_array_wrap, align 4
  %39 = call ptr @proto_item_add_subtree(ptr noundef %37, i32 noundef %38)
  store ptr %39, ptr %18, align 8
  br label %40

40:                                               ; preds = %31, %8
  %41 = load ptr, ptr %9, align 8
  %42 = load i32, ptr %10, align 4
  %43 = load ptr, ptr %11, align 8
  %44 = load ptr, ptr %18, align 8
  %45 = load ptr, ptr %13, align 8
  %46 = load ptr, ptr %14, align 8
  %47 = call i32 @mapi_dissect_element_SPropValue_array_wrap_wrap(ptr noundef %41, i32 noundef %42, ptr noundef %43, ptr noundef %44, ptr noundef %45, ptr noundef %46)
  store i32 %47, ptr %10, align 4
  %48 = load ptr, ptr %17, align 8
  %49 = load i32, ptr %10, align 4
  %50 = load i32, ptr %20, align 4
  %51 = sub i32 %49, %50
  call void @proto_item_set_len(ptr noundef %48, i32 noundef %51)
  %52 = load i8, ptr %19, align 1, !range !6, !noundef !7
  %53 = trunc i8 %52 to i1
  %54 = load ptr, ptr %13, align 8
  %55 = getelementptr inbounds nuw %struct._dcerpc_info, ptr %54, i32 0, i32 5
  %56 = zext i1 %53 to i8
  store i8 %56, ptr %55, align 2
  %57 = load i32, ptr %10, align 4
  call void @llvm.lifetime.end.p0(i64 4, ptr %20) #5
  call void @llvm.lifetime.end.p0(i64 1, ptr %19) #5
  call void @llvm.lifetime.end.p0(i64 8, ptr %18) #5
  call void @llvm.lifetime.end.p0(i64 8, ptr %17) #5
  ret i32 %57
}